target datalayout = "e-m:e-p270:32:32-p271:32:32-p272:64:64-i64:64-i128:128-f80:128-n8:16:32:64-S128"
target triple = "x86_64-pc-linux-gnu"

%struct.yyguts_t = type { ptr, ptr, ptr, i64, i64, ptr, i8, i32, i32, ptr, i32, i32, i32, i32, i32, ptr, i32, ptr, i32, i32, ptr, i32, i32, ptr }
%struct.replication_yy_extra_type = type { i32, %struct.StringInfoData }
%struct.StringInfoData = type { ptr, i32, i32, i32 }
%union.YYSTYPE = type { ptr }

; Function Attrs: nounwind uwtable
define dso_local zeroext i1 @replication_scanner_is_replication_command(ptr noundef %0) #0 {
  %2 = alloca i1, align 1
  %3 = alloca ptr, align 8
  %4 = alloca %union.YYSTYPE, align 8
  %5 = alloca i32, align 4
  %6 = alloca i32, align 4
  store ptr %0, ptr %3, align 8
  call void @llvm.lifetime.start.p0(i64 8, ptr %4) #10
  call void @llvm.lifetime.start.p0(i64 4, ptr %5) #10
  %7 = load ptr, ptr %3, align 8
  %8 = call i32 @replication_yylex(ptr noundef %4, ptr noundef %7)
  store i32 %8, ptr %5, align 4
  %9 = load i32, ptr %5, align 4
  switch i32 %9, label %16 [
    i32 263, label %10
    i32 262, label %10
    i32 266, label %10
    i32 267, label %10
    i32 268, label %10
    i32 269, label %10
    i32 264, label %10
    i32 270, label %10
    i32 282, label %10
    i32 265, label %10
  ]

10:                                               ; preds = %1, %1, %1, %1, %1, %1, %1, %1, %1, %1
  %11 = load i32, ptr %5, align 4
  %12 = load ptr, ptr %3, align 8
  %13 = getelementptr inbounds nuw %struct.yyguts_t, ptr %12, i32 0, i32 0
  %14 = load ptr, ptr %13, align 8
  %15 = getelementptr inbounds nuw %struct.replication_yy_extra_type, ptr %14, i32 0, i32 0
  store i32 %11, ptr %15, align 8
  store i1 true, ptr %2, align 1
  store i32 1, ptr %6, align 4
  br label %17

16:                                               ; preds = %1
  store i1 false, ptr %2, align 1
  store i32 1, ptr %6, align 4
  br label %17

17:                                               ; preds = %16, %10
  call void @llvm.lifetime.end.p0(i64 4, ptr %5) #10
  call void @llvm.lifetime.end.p0(i64 8, ptr %4) #10
  %18 = load i1, ptr %2, align 1
  ret i1 %18
}