; Function Attrs: nounwind uwtable
define dso_local noundef zeroext i1 @replication_scanner_is_replication_command(ptr noundef initializes((144, 152)) %0) local_unnamed_addr #0 {
  %2 = alloca %union.YYSTYPE, align 8
  call void @llvm.lifetime.start.p0(i64 8, ptr nonnull %2) #17
  %3 = call i32 @replication_yylex(ptr noundef nonnull %2, ptr noundef %0)
  switch i32 %3, label %6 [
    i32 263, label %4
    i32 262, label %4
    i32 266, label %4
    i32 267, label %4
    i32 268, label %4
    i32 269, label %4
    i32 264, label %4
    i32 270, label %4
    i32 282, label %4
    i32 265, label %4
  ]

4:                                                ; preds = %1, %1, %1, %1, %1, %1, %1, %1, %1, %1
  %5 = load ptr, ptr %0, align 8
  store i32 %3, ptr %5, align 8
  br label %6

6:                                                ; preds = %1, %4
  %.0 = phi i1 [ true, %4 ], [ false, %1 ]
  call void @llvm.lifetime.end.p0(i64 8, ptr nonnull %2) #17
  ret i1 %.0
}